target datalayout = "e-m:e-p270:32:32-p271:32:32-p272:64:64-i64:64-i128:128-f80:128-n8:16:32:64-S128"
target triple = "x86_64-pc-linux-gnu"

%"class.Imf_3_4::Context" = type { %"class.std::shared_ptr" }
%"class.std::shared_ptr" = type { %"class.std::__shared_ptr" }
%"class.std::__shared_ptr" = type { ptr, %"class.std::__shared_count" }
%"class.std::__shared_count" = type { ptr }
%"class.std::__cxx11::basic_stringstream" = type { %"class.std::basic_iostream.base", %"class.std::__cxx11::basic_stringbuf", %"class.std::basic_ios" }
%"class.std::basic_iostream.base" = type { %"class.std::basic_istream.base", %"class.std::basic_ostream.base" }
%"class.std::basic_istream.base" = type { ptr, i64 }
%"class.std::basic_ostream.base" = type { ptr }
%"class.std::__cxx11::basic_stringbuf" = type { %"class.std::basic_streambuf", i32, %"class.std::__cxx11::basic_string" }
%"class.std::basic_streambuf" = type { ptr, ptr, ptr, ptr, ptr, ptr, ptr, %"class.std::locale" }
%"class.std::locale" = type { ptr }
%"class.std::__cxx11::basic_string" = type { %"struct.std::__cxx11::basic_string<char>::_Alloc_hider", i64, %union.anon }
%"struct.std::__cxx11::basic_string<char>::_Alloc_hider" = type { ptr }
%union.anon = type { i64, [8 x i8] }
%"class.std::basic_ios" = type { %"class.std::ios_base", ptr, i8, i8, ptr, ptr, ptr, ptr }
%"class.std::ios_base" = type { ptr, i64, i64, i32, i32, i32, ptr, %"struct.std::ios_base::_Words", [8 x %"struct.std::ios_base::_Words"], i32, ptr, %"class.std::locale" }
%"struct.std::ios_base::_Words" = type { ptr, i64 }

@_ZTIN7Iex_3_46ArgExcE = external constant ptr
@.str.6 = private unnamed_addr constant [36 x i8] c"Unable to get filename from context\00", align 1

; Function Attrs: inlinehint mustprogress nounwind uwtable
define linkonce_odr noundef i32 @_ZStorSt12_Ios_IostateS_(i32 noundef %0, i32 noundef %1) #9 comdat {
  %3 = alloca i32, align 4
  %4 = alloca i32, align 4
  store i32 %0, ptr %3, align 4, !tbaa !459
  store i32 %1, ptr %4, align 4, !tbaa !459
  %5 = load i32, ptr %3, align 4, !tbaa !459
  %6 = load i32, ptr %4, align 4, !tbaa !459
  %7 = or i32 %5, %6
  ret i32 %7
}

; Function Attrs: mustprogress nounwind uwtable
define available_externally noundef i32 @_ZNKSt9basic_iosIcSt11char_traitsIcEE7rdstateEv(ptr noundef nonnull align 8 dereferenceable(264) %0) #7 align 2 {
  %2 = alloca ptr, align 8
  store ptr %0, ptr %2, align 8, !tbaa !416
  %3 = load ptr, ptr %2, align 8
  %4 = getelementptr inbounds nuw %"class.std::ios_base", ptr %3, i32 0, i32 5
  %5 = load i32, ptr %4, align 8, !tbaa !460
  ret i32 %5
}

; Function Attrs: mustprogress nounwind uwtable
define linkonce_odr hidden noundef ptr @_ZNKSt12__shared_ptrIP19_priv_exr_context_tLN9__gnu_cxx12_Lock_policyE2EE3getEv(ptr noundef nonnull align 8 dereferenceable(16) %0) #7 comdat align 2 {
  %2 = alloca ptr, align 8
  store ptr %0, ptr %2, align 8, !tbaa !21
  %3 = load ptr, ptr %2, align 8
  %4 = getelementptr inbounds nuw %"class.std::__shared_ptr", ptr %3, i32 0, i32 0
  %5 = load ptr, ptr %4, align 8, !tbaa !23
  ret ptr %5
}

; Function Attrs: mustprogress nounwind uwtable
define linkonce_odr hidden noundef i64 @_ZNSt11char_traitsIcE6lengthEPKc(ptr noundef %0) #7 comdat align 2 {
  %2 = alloca ptr, align 8
  store ptr %0, ptr %2, align 8, !tbaa !15
  %3 = load ptr, ptr %2, align 8, !tbaa !15
  %4 = call i64 @strlen(ptr noundef %3) #3
  ret i64 %4
}

; Function Attrs: mustprogress uwtable
define available_externally void @_ZNSt9basic_iosIcSt11char_traitsIcEE8setstateESt12_Ios_Iostate(ptr noundef nonnull align 8 dereferenceable(264) %0, i32 noundef %1) #4 align 2 {
  %3 = alloca ptr, align 8
  %4 = alloca i32, align 4
  store ptr %0, ptr %3, align 8, !tbaa !416
  store i32 %1, ptr %4, align 4, !tbaa !459
  %5 = load ptr, ptr %3, align 8
  %6 = call noundef i32 @_ZNKSt9basic_iosIcSt11char_traitsIcEE7rdstateEv(ptr noundef nonnull align 8 dereferenceable(264) %5)
  %7 = load i32, ptr %4, align 4, !tbaa !459
  %8 = call noundef i32 @_ZStorSt12_Ios_IostateS_(i32 noundef %6, i32 noundef %7)
  call void @_ZNSt9basic_iosIcSt11char_traitsIcEE5clearESt12_Ios_Iostate(ptr noundef nonnull align 8 dereferenceable(264) %5, i32 noundef %8)
  ret void
}

; Function Attrs: mustprogress nounwind uwtable
define linkonce_odr hidden noundef ptr @_ZNKSt19__shared_ptr_accessIP19_priv_exr_context_tLN9__gnu_cxx12_Lock_policyE2ELb0ELb0EE6_M_getEv(ptr noundef nonnull align 1 dereferenceable(1) %0) #7 comdat align 2 {
  %2 = alloca ptr, align 8
  store ptr %0, ptr %2, align 8, !tbaa !37
  %3 = load ptr, ptr %2, align 8
  %4 = call noundef ptr @_ZNKSt12__shared_ptrIP19_priv_exr_context_tLN9__gnu_cxx12_Lock_policyE2EE3getEv(ptr noundef nonnull align 8 dereferenceable(16) %3) #3
  ret ptr %4
}

; Function Attrs: inlinehint mustprogress uwtable
define available_externally noundef nonnull align 8 dereferenceable(8) ptr @_ZStlsISt11char_traitsIcEERSt13basic_ostreamIcT_ES5_PKc(ptr noundef nonnull align 8 dereferenceable(8) %0, ptr noundef %1) #8 {
  %3 = alloca ptr, align 8
  %4 = alloca ptr, align 8
  store ptr %0, ptr %3, align 8, !tbaa !31
  store ptr %1, ptr %4, align 8, !tbaa !15
  %5 = load ptr, ptr %4, align 8, !tbaa !15
  %6 = icmp ne ptr %5, null
  br i1 %6, label %13, label %7

7:                                                ; preds = %2
  %8 = load ptr, ptr %3, align 8, !tbaa !31
  %9 = load ptr, ptr %8, align 8, !tbaa !29
  %10 = getelementptr i8, ptr %9, i64 -24
  %11 = load i64, ptr %10, align 8
  %12 = getelementptr inbounds i8, ptr %8, i64 %11
  call void @_ZNSt9basic_iosIcSt11char_traitsIcEE8setstateESt12_Ios_Iostate(ptr noundef nonnull align 8 dereferenceable(264) %12, i32 noundef 1)
  br label %19

13:                                               ; preds = %2
  %14 = load ptr, ptr %3, align 8, !tbaa !31
  %15 = load ptr, ptr %4, align 8, !tbaa !15
  %16 = load ptr, ptr %4, align 8, !tbaa !15
  %17 = call noundef i64 @_ZNSt11char_traitsIcE6lengthEPKc(ptr noundef %16)
  %18 = call noundef nonnull align 8 dereferenceable(8) ptr @_ZSt16__ostream_insertIcSt11char_traitsIcEERSt13basic_ostreamIT_T0_ES6_PKS3_l(ptr noundef nonnull align 8 dereferenceable(8) %14, ptr noundef %15, i64 noundef %17)
  br label %19

19:                                               ; preds = %13, %7
  %20 = load ptr, ptr %3, align 8, !tbaa !31
  ret ptr %20
}

; Function Attrs: mustprogress nounwind uwtable
define linkonce_odr hidden noundef nonnull align 8 dereferenceable(8) ptr @_ZNKSt19__shared_ptr_accessIP19_priv_exr_context_tLN9__gnu_cxx12_Lock_policyE2ELb0ELb0EEdeEv(ptr noundef nonnull align 1 dereferenceable(1) %0) #7 comdat align 2 {
  %2 = alloca ptr, align 8
  store ptr %0, ptr %2, align 8, !tbaa !37
  %3 = load ptr, ptr %2, align 8
  br label %4

4:                                                ; preds = %1
  br label %5

5:                                                ; preds = %4
  br label %6

6:                                                ; preds = %5
  %7 = call noundef ptr @_ZNKSt19__shared_ptr_accessIP19_priv_exr_context_tLN9__gnu_cxx12_Lock_policyE2ELb0ELb0EE6_M_getEv(ptr noundef nonnull align 1 dereferenceable(1) %3) #3
  ret ptr %7
}

; Function Attrs: mustprogress uwtable
define noundef ptr @_ZNK7Imf_3_47Context8fileNameEv(ptr noundef nonnull align 8 dereferenceable(16) %0) #4 align 2 personality ptr @__gxx_personality_v0 {
  %2 = alloca ptr, align 8
  %3 = alloca ptr, align 8
  %4 = alloca %"class.std::__cxx11::basic_stringstream", align 8
  %5 = alloca ptr, align 8
  %6 = alloca i32, align 4
  store ptr %0, ptr %2, align 8, !tbaa !3
  %7 = load ptr, ptr %2, align 8
  call void @llvm.lifetime.start.p0(i64 8, ptr %3) #3
  store ptr null, ptr %3, align 8, !tbaa !15
  %8 = getelementptr inbounds nuw %"class.Imf_3_4::Context", ptr %7, i32 0, i32 0
  %9 = call noundef nonnull align 8 dereferenceable(8) ptr @_ZNKSt19__shared_ptr_accessIP19_priv_exr_context_tLN9__gnu_cxx12_Lock_policyE2ELb0ELb0EEdeEv(ptr noundef nonnull align 1 dereferenceable(1) %8) #3
  %10 = load ptr, ptr %9, align 8, !tbaa !8
  %11 = call i32 @exr_get_file_name(ptr noundef %10, ptr noundef %3)
  %12 = icmp ne i32 0, %11
  br i1 %12, label %13, label %31

13:                                               ; preds = %1
  br label %14

14:                                               ; preds = %13
  call void @_Z13iex_debugTrapv()
  call void @llvm.lifetime.start.p0(i64 392, ptr %4) #3
  call void @_ZNSt7__cxx1118basic_stringstreamIcSt11char_traitsIcESaIcEEC1Ev(ptr noundef nonnull align 8 dereferenceable(128) %4)
  %15 = getelementptr inbounds i8, ptr %4, i64 16
  %16 = invoke noundef nonnull align 8 dereferenceable(8) ptr @_ZStlsISt11char_traitsIcEERSt13basic_ostreamIcT_ES5_PKc(ptr noundef nonnull align 8 dereferenceable(8) %15, ptr noundef @.str.6)
          to label %17 unwind label %20

17:                                               ; preds = %14
  %18 = call ptr @__cxa_allocate_exception(i64 72) #3
  invoke void @_ZN7Iex_3_46ArgExcC1ERNSt7__cxx1118basic_stringstreamIcSt11char_traitsIcESaIcEEE(ptr noundef nonnull align 8 dereferenceable(72) %18, ptr noundef nonnull align 8 dereferenceable(128) %4)
          to label %19 unwind label %24

19:                                               ; preds = %17
  invoke void @__cxa_throw(ptr %18, ptr @_ZTIN7Iex_3_46ArgExcE, ptr @_ZN7Iex_3_46ArgExcD1Ev) #23
          to label %38 unwind label %20

20:                                               ; preds = %19, %14
  %21 = landingpad { ptr, i32 }
          cleanup
  %22 = extractvalue { ptr, i32 } %21, 0
  store ptr %22, ptr %5, align 8
  %23 = extractvalue { ptr, i32 } %21, 1
  store i32 %23, ptr %6, align 4
  br label %28

24:                                               ; preds = %17
  %25 = landingpad { ptr, i32 }
          cleanup
  %26 = extractvalue { ptr, i32 } %25, 0
  store ptr %26, ptr %5, align 8
  %27 = extractvalue { ptr, i32 } %25, 1
  store i32 %27, ptr %6, align 4
  call void @__cxa_free_exception(ptr %18) #3
  br label %28

28:                                               ; preds = %24, %20
  call void @_ZNSt7__cxx1118basic_stringstreamIcSt11char_traitsIcESaIcEED1Ev(ptr noundef nonnull align 8 dereferenceable(128) %4) #3
  call void @llvm.lifetime.end.p0(i64 392, ptr %4) #3
  call void @llvm.lifetime.end.p0(i64 8, ptr %3) #3
  br label %33

29:                                               ; No predecessors!
  br label %30

30:                                               ; preds = %29
  br label %31

31:                                               ; preds = %30, %1
  %32 = load ptr, ptr %3, align 8, !tbaa !15
  call void @llvm.lifetime.end.p0(i64 8, ptr %3) #3
  ret ptr %32

33:                                               ; preds = %28
  %34 = load ptr, ptr %5, align 8
  %35 = load i32, ptr %6, align 4
  %36 = insertvalue { ptr, i32 } poison, ptr %34, 0
  %37 = insertvalue { ptr, i32 } %36, i32 %35, 1
  resume { ptr, i32 } %37

38:                                               ; preds = %19
  unreachable
}