; Function Attrs: mustprogress uwtable
define noundef ptr @_ZNK7Imf_3_47Context8fileNameEv(ptr noundef nonnull readonly align 8 captures(none) dereferenceable(16) %0) local_unnamed_addr #3 align 2 personality ptr @__gxx_personality_v0 {
  %2 = alloca ptr, align 8
  %3 = alloca %"class.std::__cxx11::basic_stringstream", align 8
  call void @llvm.lifetime.start.p0(i64 8, ptr nonnull %2) #30
  store ptr null, ptr %2, align 8, !tbaa !26
  %4 = load ptr, ptr %0, align 8, !tbaa !8
  %5 = load ptr, ptr %4, align 8, !tbaa !3
  %6 = call i32 @exr_get_file_name(ptr noundef %5, ptr noundef nonnull %2)
  %.not = icmp eq i32 %6, 0
  br i1 %.not, label %17, label %7

7:                                                ; preds = %1
  call void @_Z13iex_debugTrapv()
  call void @llvm.lifetime.start.p0(i64 392, ptr nonnull %3) #30
  call void @_ZNSt7__cxx1118basic_stringstreamIcSt11char_traitsIcESaIcEEC1Ev(ptr noundef nonnull align 8 dereferenceable(128) %3)
  %8 = getelementptr inbounds nuw i8, ptr %3, i64 16
  %9 = invoke noundef nonnull align 8 dereferenceable(8) ptr @_ZSt16__ostream_insertIcSt11char_traitsIcEERSt13basic_ostreamIT_T0_ES6_PKS3_l(ptr noundef nonnull align 8 dereferenceable(8) %8, ptr noundef nonnull @.str.6, i64 noundef 35)
          to label %_ZStlsISt11char_traitsIcEERSt13basic_ostreamIcT_ES5_PKc.exit unwind label %12

_ZStlsISt11char_traitsIcEERSt13basic_ostreamIcT_ES5_PKc.exit: ; preds = %7
  %10 = call ptr @__cxa_allocate_exception(i64 72) #30
  invoke void @_ZN7Iex_3_46ArgExcC1ERNSt7__cxx1118basic_stringstreamIcSt11char_traitsIcESaIcEEE(ptr noundef nonnull align 8 dereferenceable(72) %10, ptr noundef nonnull align 8 dereferenceable(128) %3)
          to label %11 unwind label %14

11:                                               ; preds = %_ZStlsISt11char_traitsIcEERSt13basic_ostreamIcT_ES5_PKc.exit
  invoke void @__cxa_throw(ptr nonnull %10, ptr nonnull @_ZTIN7Iex_3_46ArgExcE, ptr nonnull @_ZN7Iex_3_46ArgExcD1Ev) #32
          to label %19 unwind label %12

12:                                               ; preds = %7, %11
  %13 = landingpad { ptr, i32 }
          cleanup
  br label %16

14:                                               ; preds = %_ZStlsISt11char_traitsIcEERSt13basic_ostreamIcT_ES5_PKc.exit
  %15 = landingpad { ptr, i32 }
          cleanup
  call void @__cxa_free_exception(ptr nonnull %10) #30
  br label %16

16:                                               ; preds = %14, %12
  %.pn = phi { ptr, i32 } [ %13, %12 ], [ %15, %14 ]
  call void @_ZNSt7__cxx1118basic_stringstreamIcSt11char_traitsIcESaIcEED1Ev(ptr noundef nonnull align 8 dereferenceable(128) %3) #30
  call void @llvm.lifetime.end.p0(i64 392, ptr nonnull %3) #30
  call void @llvm.lifetime.end.p0(i64 8, ptr nonnull %2) #30
  resume { ptr, i32 } %.pn

17:                                               ; preds = %1
  %18 = load ptr, ptr %2, align 8, !tbaa !26
  call void @llvm.lifetime.end.p0(i64 8, ptr nonnull %2) #30
  ret ptr %18

19:                                               ; preds = %11
  unreachable
}